; Function Attrs: mustprogress uwtable
define dso_local void @_ZN6spdlog12async_logger5cloneENSt7__cxx1112basic_stringIcSt11char_traitsIcESaIcEEE(ptr noalias nocapture writeonly sret(%"class.std::shared_ptr.34") align 8 %agg.result, ptr noundef nonnull align 8 dereferenceable(248) %this, ptr noundef %new_name) unnamed_addr #0 align 2 personality ptr @__gxx_personality_v0 {
_ZNSt10shared_ptrIN6spdlog12async_loggerEED2Ev.exit:
  %__a.i = alloca %"class.std::allocator.50", align 1
  %cloned = alloca %"class.std::shared_ptr.28", align 16
  call void @llvm.lifetime.start.p0(i64 1, ptr nonnull %__a.i)
  call void @_ZNSt12__shared_ptrIN6spdlog12async_loggerELN9__gnu_cxx12_Lock_policyE2EEC2ISaIvEJRS1_EEESt20_Sp_alloc_shared_tagIT_EDpOT0_(ptr noundef nonnull align 8 dereferenceable(16) %cloned, ptr nonnull %__a.i, ptr noundef nonnull align 8 dereferenceable(248) %this)
  call void @llvm.lifetime.end.p0(i64 1, ptr nonnull %__a.i)
  %0 = load ptr, ptr %cloned, align 16
  %name_ = getelementptr inbounds i8, ptr %0, i64 8
  %call2 = call noundef nonnull align 8 dereferenceable(32) ptr @_ZNSt7__cxx1112basic_stringIcSt11char_traitsIcESaIcEEaSEOS4_(ptr noundef nonnull align 8 dereferenceable(32) %name_, ptr noundef nonnull align 8 dereferenceable(32) %new_name) #18
  %1 = load <2 x ptr>, ptr %cloned, align 16
  store <2 x ptr> %1, ptr %agg.result, align 8
  ret void
}